EXPORTS
 "_Z3NMFN4arma3MatIdEEiS1_S1_di"
 "_ZGVN4arma5DatumIdE3nanE"
 "_ZGVN4arma5DatumIiE3nanE"
 "_ZGVZ7dataptrP7SEXPRECE3fun"
 "_ZN4arma10glue_times5applyIdLb0ELb0ELb0ENS_3MatIdEES3_EEvRNS2_IT_EERKT3_RKT4_S4_"
 "_ZN4arma10glue_times5applyIdLb0ELb1ELb0ENS_3MatIdEES3_EEvRNS2_IT_EERKT3_RKT4_S4_"
 "_ZN4arma10glue_times5applyIdLb1ELb0ELb0ENS_3MatIdEES3_EEvRNS2_IT_EERKT3_RKT4_S4_"
 "_ZN4arma13subview_elem1IdNS_4mtOpIjNS1_IjNS_3MatIdEENS_9op_rel_eqEEENS_14op_find_simpleEEEE10inplace_opINS_15op_internal_equEEEvd"
 "_ZN4arma14glue_join_rows13apply_noaliasINS_3ColIdEES3_EEvRNS_3MatINT_9elem_typeEEERKNS_5ProxyIS5_EERKNS9_IT0_EE"
 "_ZN4arma16gemm_emul_tinysqILb0ELb0ELb0EE5applyIdNS_3MatIdEES4_EEvRNS3_IT_EERKT0_RKT1_S5_S5_"
 "_ZN4arma16gemv_emul_tinysqILb0ELb0ELb0EE5applyIdNS_3MatIdEEEEvPT_RKT0_PKS5_S5_S5_"
 "_ZN4arma16gemv_emul_tinysqILb1ELb0ELb0EE5applyIdNS_3MatIdEEEEvPT_RKT0_PKS5_S5_S5_"
 "_ZN4arma17accu_proxy_linearINS_3eOpINS_5eGlueINS_3MatIdEES4_NS_11eglue_minusEEENS_10eop_squareEEEEENT_9elem_typeERKNS_5ProxyIS9_EE"
 "_ZN4arma27glue_times_redirect2_helperILb0EE5applyINS_3MatIdEENS_2OpIS4_NS_9op_htransEEEEEvRNS3_INT_9elem_typeEEERKNS_4GlueIS8_T0_NS_10glue_timesEEE"
 "_ZN4arma3MatIdE9init_coldEv"
 "_ZN4arma3MatIdE9init_warmEjj"
 "_ZN4arma3MatIdE9steal_memERS1_"
 "_ZN4arma3MatIdED1Ev"
 "_ZN4arma3MatIdED2Ev"
 "_ZN4arma3MatIjED1Ev"
 "_ZN4arma5DatumIdE3nanE"
 "_ZN4arma5DatumIiE3nanE"
 "_ZN4arma8arrayops10copy_smallIdEEvPT_PKS2_j"
 "_ZN4arma8arrayops10copy_smallIjEEvPT_PKS2_j"
 "_ZN4arma8arrayops17inplace_set_smallIdEEvPT_S2_j"
 "_ZN4arma9op_strans24apply_mat_noalias_tinysqIdNS_3MatIdEEEEvRNS2_IT_EERKT0_"
 "_ZN4Rcpp10RstreambufILb0EE4syncEv"
 "_ZN4Rcpp10RstreambufILb0EE6xsputnEPKcx"
 "_ZN4Rcpp10RstreambufILb0EE8overflowEi"
 "_ZN4Rcpp10RstreambufILb0EED0Ev"
 "_ZN4Rcpp10RstreambufILb0EED1Ev"
 "_ZN4Rcpp10RstreambufILb1EE4syncEv"
 "_ZN4Rcpp10RstreambufILb1EE6xsputnEPKcx"
 "_ZN4Rcpp10RstreambufILb1EE8overflowEi"
 "_ZN4Rcpp10RstreambufILb1EED0Ev"
 "_ZN4Rcpp10RstreambufILb1EED1Ev"
 "_ZN4Rcpp13RcppArmadillo9arma_wrapIN4arma3MatIdEEEEP7SEXPRECRKT_RKNS_9DimensionE"
 "_ZN4Rcpp4wrapIdEEP7SEXPRECRKN4arma3MatIT_EE"
 "_ZN4Rcpp6VectorILi19ENS_15PreserveStorageEE16create__dispatchINS_6traits12named_objectIN4arma3MatIdEEEES9_S9_NS5_IiEENS5_IdEESB_EES2_NS4_17integral_constantIbLb1EEERKT_RKT0_RKT1_RKT2_RKT3_RKT4_"
 "_ZN4Rcpp8RostreamILb0EED0Ev"
 "_ZN4Rcpp8RostreamILb0EED1Ev"
 "_ZN4Rcpp8RostreamILb1EED0Ev"
 "_ZN4Rcpp8RostreamILb1EED1Ev"
 "_ZTCN4Rcpp8RostreamILb0EEE0_So"
 "_ZTCN4Rcpp8RostreamILb1EEE0_So"
 "_ZTIN4Rcpp10RstreambufILb0EEE"
 "_ZTIN4Rcpp10RstreambufILb1EEE"
 "_ZTIN4Rcpp8RostreamILb0EEE"
 "_ZTIN4Rcpp8RostreamILb1EEE"
 "_ZTISt11logic_error"
 "_ZTISt13runtime_error"
 "_ZTISt9bad_alloc"
 "_ZTISt9exception"
 "_ZTSN4Rcpp10RstreambufILb0EEE"
 "_ZTSN4Rcpp10RstreambufILb1EEE"
 "_ZTSN4Rcpp8RostreamILb0EEE"
 "_ZTSN4Rcpp8RostreamILb1EEE"
 "_ZTSSt11logic_error"
 "_ZTSSt13runtime_error"
 "_ZTSSt9bad_alloc"
 "_ZTSSt9exception"
 "_ZTTN4Rcpp8RostreamILb0EEE"
 "_ZTTN4Rcpp8RostreamILb1EEE"
 "_ZTv0_n24_N4Rcpp8RostreamILb0EED0Ev"
 "_ZTv0_n24_N4Rcpp8RostreamILb0EED1Ev"
 "_ZTv0_n24_N4Rcpp8RostreamILb1EED0Ev"
 "_ZTv0_n24_N4Rcpp8RostreamILb1EED1Ev"
 "_ZTVN4Rcpp10RstreambufILb0EEE"
 "_ZTVN4Rcpp10RstreambufILb1EEE"
 "_ZTVN4Rcpp8RostreamILb0EEE"
 "_ZTVN4Rcpp8RostreamILb1EEE"
 "_ZZ7dataptrP7SEXPRECE3fun"
 "_ZZN4arma16arma_cerr_streamIcEERSoPSoE11cerr_stream"
 "_Z4ONMFN4arma3MatIdEEiS1_S1_di"
 "_ZGVN4arma5DatumIdE3nanE"
 "_ZGVN4arma5DatumIiE3nanE"
 "_ZGVZ7dataptrP7SEXPRECE3fun"
 "_ZN4arma10eglue_coreINS_10eglue_plusEE5applyINS_3MatIdEENS_3ColIdEENS_11subview_colIdEEEEvRT_RKNS_5eGlueIT0_T1_S1_EE"
 "_ZN4arma10eglue_coreINS_10eglue_plusEE5applyINS_3MatIdEENS_5eGlueINS_11subview_colIdEENS_4GlueIS5_S8_NS_10glue_timesEEENS_11eglue_minusEEENS_3eOpIS8_NS_16eop_scalar_timesEEEEEvRT_RKNS6_IT0_T1_S1_EE"
 "_ZN4arma10eglue_coreINS_11eglue_minusEE5applyINS_3MatIdEES5_NS_11subview_colIdEEEEvRT_RKNS_5eGlueIT0_T1_S1_EE"
 "_ZN4arma10glue_times5applyIdLb0ELb0ELb0ENS_3ColIdEENS_3MatIdEEEEvRNS4_IT_EERKT3_RKT4_S6_"
 "_ZN4arma10glue_times5applyIdLb0ELb0ELb0ENS_3MatIdEENS_3ColIdEEEEvRNS2_IT_EERKT3_RKT4_S6_"
 "_ZN4arma10glue_times5applyIdLb0ELb0ELb0ENS_3MatIdEES3_EEvRNS2_IT_EERKT3_RKT4_S4_"
 "_ZN4arma13subview_elem1IdNS_4mtOpIjNS1_IjNS_3ColIdEENS_14op_rel_lt_postEEENS_14op_find_simpleEEEE10inplace_opINS_15op_internal_equEEEvd"
 "_ZN4arma14glue_join_rows13apply_noaliasINS_3ColIdEES3_EEvRNS_3MatINT_9elem_typeEEERKNS_5ProxyIS5_EERKNS9_IT0_EE"
 "_ZN4arma14glue_join_rows13apply_noaliasINS_3MatIdEENS_3ColIdEEEEvRNS2_INT_9elem_typeEEERKNS_5ProxyIS6_EERKNSA_IT0_EE"
 "_ZN4arma16gemm_emul_tinysqILb0ELb0ELb0EE5applyIdNS_3MatIdEES4_EEvRNS3_IT_EERKT0_RKT1_S5_S5_"
 "_ZN4arma16gemm_emul_tinysqILb1ELb0ELb0EE5applyIdNS_3MatIdEES4_EEvRNS3_IT_EERKT0_RKT1_S5_S5_"
 "_ZN4arma16gemv_emul_tinysqILb0ELb0ELb0EE5applyIdNS_3ColIdEEEEvPT_RKT0_PKS5_S5_S5_"
 "_ZN4arma16gemv_emul_tinysqILb0ELb0ELb0EE5applyIdNS_3MatIdEEEEvPT_RKT0_PKS5_S5_S5_"
 "_ZN4arma16gemv_emul_tinysqILb1ELb0ELb0EE5applyIdNS_3ColIdEEEEvPT_RKT0_PKS5_S5_S5_"
 "_ZN4arma16gemv_emul_tinysqILb1ELb0ELb0EE5applyIdNS_3MatIdEEEEvPT_RKT0_PKS5_S5_S5_"
 "_ZN4arma17accu_proxy_linearINS_3eOpINS_5eGlueINS_3MatIdEES4_NS_11eglue_minusEEENS_10eop_squareEEEEENT_9elem_typeERKNS_5ProxyIS9_EE"
 "_ZN4arma17accu_proxy_linearINS_5eGlueINS1_INS_4GlueINS_2OpINS_3MatIdEENS_9op_htransEEES5_NS_10glue_timesEEES5_NS_11eglue_minusEEESB_NS_11eglue_schurEEEEENT_9elem_typeERKNS_5ProxyISE_EE"
 "_ZN4arma27glue_times_redirect2_helperILb0EE5applyINS_11subview_colIdEENS_2OpINS_3eOpINS_4GlueINS5_IS4_NS_9op_htransEEES4_NS_10glue_timesEEENS_8eop_sqrtEEENS_6op_invEEEEEvRNS_3MatINT_9elem_typeEEERKNS7_ISH_T0_SA_EE"
 "_ZN4arma27glue_times_redirect2_helperILb0EE5applyINS_2OpINS_3MatIdEENS_9op_htransEEES5_EEvRNS4_INT_9elem_typeEEERKNS_4GlueIS8_T0_NS_10glue_timesEEE"
 "_ZN4arma27glue_times_redirect2_helperILb0EE5applyINS_3MatIdEENS_2OpIS4_NS_9op_htransEEEEEvRNS3_INT_9elem_typeEEERKNS_4GlueIS8_T0_NS_10glue_timesEEE"
 "_ZN4arma3MatIdE9init_coldEv"
 "_ZN4arma3MatIdE9init_warmEjj"
 "_ZN4arma3MatIdE9steal_memERS1_"
 "_ZN4arma3MatIdEaSERKS1_"
 "_ZN4arma3MatIdEC1ERKS1_"
 "_ZN4arma3MatIdED1Ev"
 "_ZN4arma3MatIdED2Ev"
 "_ZN4arma3MatIjE5resetEv"
 "_ZN4arma3MatIjE9init_warmEjj"
 "_ZN4arma3MatIjED1Ev"
 "_ZN4arma4gemvILb0ELb0ELb0EE15apply_blas_typeIdNS_3MatIdEEEEvPT_RKT0_PKS5_S5_S5_"
 "_ZN4arma4gemvILb1ELb0ELb0EE15apply_blas_typeIdNS_3MatIdEEEEvPT_RKT0_PKS5_S5_S5_"
 "_ZN4arma5DatumIdE3nanE"
 "_ZN4arma5DatumIiE3nanE"
 "_ZN4arma5ProxyINS_4GlueINS_2OpINS_3MatIdEENS_9op_htransEEES4_NS_10glue_timesEEEEC1ERKS8_"
 "_ZN4arma6auxlib8inv_tinyIdEEbRNS_3MatIT_EERKS4_"
 "_ZN4arma6op_dot10direct_dotIdEENS_14arma_real_onlyIT_E6resultEjPKS3_S7_"
 "_ZN4arma7subviewIdE10inplace_opINS_15op_internal_equENS_3MatIdEEEEvRKNS_4BaseIdT0_EEPKc"
 "_ZN4arma7subviewIdE7extractERNS_3MatIdEERKS1_"
 "_ZN4arma8arrayops10copy_smallIdEEvPT_PKS2_j"
 "_ZN4arma8arrayops10copy_smallIjEEvPT_PKS2_j"
 "_ZN4arma8arrayops17inplace_set_smallIdEEvPT_S2_j"
 "_ZN4arma9op_strans17apply_mat_noaliasIdNS_3MatIdEEEEvRNS2_IT_EERKT0_"
 "_ZN4arma9op_strans24apply_mat_noalias_tinysqIdNS_3MatIdEEEEvRNS2_IT_EERKT0_"
 "_ZN4Rcpp10RstreambufILb0EE4syncEv"
 "_ZN4Rcpp10RstreambufILb0EE6xsputnEPKcx"
 "_ZN4Rcpp10RstreambufILb0EE8overflowEi"
 "_ZN4Rcpp10RstreambufILb0EED0Ev"
 "_ZN4Rcpp10RstreambufILb0EED1Ev"
 "_ZN4Rcpp10RstreambufILb1EE4syncEv"
 "_ZN4Rcpp10RstreambufILb1EE6xsputnEPKcx"
 "_ZN4Rcpp10RstreambufILb1EE8overflowEi"
 "_ZN4Rcpp10RstreambufILb1EED0Ev"
 "_ZN4Rcpp10RstreambufILb1EED1Ev"
 "_ZN4Rcpp13RcppArmadillo9arma_wrapIN4arma3MatIdEEEEP7SEXPRECRKT_RKNS_9DimensionE"
 "_ZN4Rcpp4wrapIdEEP7SEXPRECRKN4arma3MatIT_EE"
 "_ZN4Rcpp6VectorILi19ENS_15PreserveStorageEE16create__dispatchINS_6traits12named_objectIN4arma3MatIdEEEES9_S9_NS5_IiEENS5_IdEESB_SB_EES2_NS4_17integral_constantIbLb1EEERKT_RKT0_RKT1_RKT2_RKT3_RKT4_RKT5_"
 "_ZN4Rcpp8RostreamILb0EED0Ev"
 "_ZN4Rcpp8RostreamILb0EED1Ev"
 "_ZN4Rcpp8RostreamILb1EED0Ev"
 "_ZN4Rcpp8RostreamILb1EED1Ev"
 "_ZTCN4Rcpp8RostreamILb0EEE0_So"
 "_ZTCN4Rcpp8RostreamILb1EEE0_So"
 "_ZTIN4Rcpp10RstreambufILb0EEE"
 "_ZTIN4Rcpp10RstreambufILb1EEE"
 "_ZTIN4Rcpp8RostreamILb0EEE"
 "_ZTIN4Rcpp8RostreamILb1EEE"
 "_ZTISt11logic_error"
 "_ZTISt13runtime_error"
 "_ZTISt9bad_alloc"
 "_ZTISt9exception"
 "_ZTSN4Rcpp10RstreambufILb0EEE"
 "_ZTSN4Rcpp10RstreambufILb1EEE"
 "_ZTSN4Rcpp8RostreamILb0EEE"
 "_ZTSN4Rcpp8RostreamILb1EEE"
 "_ZTSSt11logic_error"
 "_ZTSSt13runtime_error"
 "_ZTSSt9bad_alloc"
 "_ZTSSt9exception"
 "_ZTTN4Rcpp8RostreamILb0EEE"
 "_ZTTN4Rcpp8RostreamILb1EEE"
 "_ZTv0_n24_N4Rcpp8RostreamILb0EED0Ev"
 "_ZTv0_n24_N4Rcpp8RostreamILb0EED1Ev"
 "_ZTv0_n24_N4Rcpp8RostreamILb1EED0Ev"
 "_ZTv0_n24_N4Rcpp8RostreamILb1EED1Ev"
 "_ZTVN4Rcpp10RstreambufILb0EEE"
 "_ZTVN4Rcpp10RstreambufILb1EEE"
 "_ZTVN4Rcpp8RostreamILb0EEE"
 "_ZTVN4Rcpp8RostreamILb1EEE"
 "_ZZ7dataptrP7SEXPRECE3fun"
 "_ZZN4arma16arma_cerr_streamIcEERSoPSoE11cerr_stream"
 "_MatrixFact_lognmf"
 "_MatrixFact_NMF"
 "_MatrixFact_NMF_LOG"
 "_MatrixFact_ONMF"
 "_MatrixFact_SemiNMF"
 "_MatrixFact_SO_BIN3"
 "_MatrixFact_SO_NMF"
 "_Z13get_last_callv"
 "_Z19string_to_try_errorRKSs"
 "_Z31exception_to_condition_templateIN4Rcpp9exceptionEEP7SEXPRECRKT_b"
 "_Z31exception_to_condition_templateISt9exceptionEP7SEXPRECRKT_b"
 "_ZGVN4arma5DatumIdE3nanE"
 "_ZGVN4arma5DatumIiE3nanE"
 "_ZGVZ11stack_tracePKciE3fun"
 "_ZGVZ20rcpp_get_stack_tracevE3fun"
 "_ZGVZ20rcpp_set_stack_traceP7SEXPRECE3fun"
 "_ZGVZ7dataptrP7SEXPRECE3fun"
 "_ZGVZ8demangleRKSsE3fun"
 "_ZGVZN4Rcpp8internal12exitRNGScopeEvE3fun"
 "_ZGVZN4Rcpp8internal13enterRNGScopeEvE3fun"
 "_ZN10tinyformat6detail10formatImplERSoPKcPKNS0_9FormatArgEi"
 "_ZN10tinyformat6detail15formatTruncatedIiEEvRSoRKT_i"
 "_ZN10tinyformat6detail21streamStateFromFormatERSoRbRiPKcPKNS0_9FormatArgES3_i"
 "_ZN10tinyformat6detail9FormatArg10formatImplIiEEvRSoPKcS5_iPKv"
 "_ZN10tinyformat6detail9FormatArg10formatImplIPKcEEvRSoS4_S4_iPKv"
 "_ZN10tinyformat6detail9FormatArg9toIntImplIiEEiPKv"
 "_ZN10tinyformat6detail9FormatArg9toIntImplIPKcEEiPKv"
 "_ZN10tinyformat6formatIIEEESsPKcDpRKT_"
 "_ZN10tinyformat6formatIIiEEESsPKcDpRKT_"
 "_ZN10tinyformat6formatIIPKcS2_EEESsS2_DpRKT_"
 "_ZN4arma3MatIdED1Ev"
 "_ZN4arma5DatumIdE3nanE"
 "_ZN4arma5DatumIiE3nanE"
 "_ZN4Rcpp10eval_errorD0Ev"
 "_ZN4Rcpp10eval_errorD1Ev"
 "_ZN4Rcpp10RstreambufILb0EE4syncEv"
 "_ZN4Rcpp10RstreambufILb0EE6xsputnEPKcx"
 "_ZN4Rcpp10RstreambufILb0EE8overflowEi"
 "_ZN4Rcpp10RstreambufILb0EED0Ev"
 "_ZN4Rcpp10RstreambufILb0EED1Ev"
 "_ZN4Rcpp10RstreambufILb1EE4syncEv"
 "_ZN4Rcpp10RstreambufILb1EE6xsputnEPKcx"
 "_ZN4Rcpp10RstreambufILb1EE8overflowEi"
 "_ZN4Rcpp10RstreambufILb1EED0Ev"
 "_ZN4Rcpp10RstreambufILb1EED1Ev"
 "_ZN4Rcpp12not_a_matrixD0Ev"
 "_ZN4Rcpp12not_a_matrixD1Ev"
 "_ZN4Rcpp14not_compatibleC1IIiEEEPKcDpOT_"
 "_ZN4Rcpp14not_compatibleC1IIPKcS3_EEES3_DpOT_"
 "_ZN4Rcpp14not_compatibleD0Ev"
 "_ZN4Rcpp14not_compatibleD1Ev"
 "_ZN4Rcpp4stopERKSs"
 "_ZN4Rcpp4stopIIEEEvPKcDpOT_"
 "_ZN4Rcpp6r_castILi14EEEP7SEXPRECS2_"
 "_ZN4Rcpp8internal10basic_castILi13EEEP7SEXPRECS3_"
 "_ZN4Rcpp8internal10basic_castILi14EEEP7SEXPRECS3_"
 "_ZN4Rcpp8internal10resumeJumpEP7SEXPREC"
 "_ZN4Rcpp8internal12exitRNGScopeEv"
 "_ZN4Rcpp8internal12primitive_asIdEET_P7SEXPREC"
 "_ZN4Rcpp8internal12primitive_asIiEET_P7SEXPREC"
 "_ZN4Rcpp8internal21export_indexing__implIN4arma3MatIdEEdEEvP7SEXPRECRT_NS_6traits17integral_constantIbLb0EEE"
 "_ZN4Rcpp8internal3nthEP7SEXPRECi"
 "_ZN4Rcpp8RostreamILb0EED0Ev"
 "_ZN4Rcpp8RostreamILb0EED1Ev"
 "_ZN4Rcpp8RostreamILb1EED0Ev"
 "_ZN4Rcpp8RostreamILb1EED1Ev"
 "_ZN4Rcpp9exceptionC1EPKcb"
 "_ZN4Rcpp9exceptionD0Ev"
 "_ZN4Rcpp9exceptionD1Ev"
 "_ZNK4Rcpp10eval_error4whatEv"
 "_ZNK4Rcpp12not_a_matrix4whatEv"
 "_ZNK4Rcpp14not_compatible4whatEv"
 "_ZNK4Rcpp9exception4whatEv"
 "_ZNKSt5ctypeIcE8do_widenEc"
 "_ZNSt15basic_stringbufIcSt11char_traitsIcESaIcEED1Ev"
 "_ZTCN4Rcpp8RostreamILb0EEE0_So"
 "_ZTCN4Rcpp8RostreamILb1EEE0_So"
 "_ZTIN4Rcpp10eval_errorE"
 "_ZTIN4Rcpp10RstreambufILb0EEE"
 "_ZTIN4Rcpp10RstreambufILb1EEE"
 "_ZTIN4Rcpp12not_a_matrixE"
 "_ZTIN4Rcpp14not_compatibleE"
 "_ZTIN4Rcpp17LongjumpExceptionE"
 "_ZTIN4Rcpp8internal20InterruptedExceptionE"
 "_ZTIN4Rcpp8RostreamILb0EEE"
 "_ZTIN4Rcpp8RostreamILb1EEE"
 "_ZTIN4Rcpp9exceptionE"
 "_ZTISt11logic_error"
 "_ZTISt9bad_alloc"
 "_ZTISt9exception"
 "_ZTSN4Rcpp10eval_errorE"
 "_ZTSN4Rcpp10RstreambufILb0EEE"
 "_ZTSN4Rcpp10RstreambufILb1EEE"
 "_ZTSN4Rcpp12not_a_matrixE"
 "_ZTSN4Rcpp14not_compatibleE"
 "_ZTSN4Rcpp17LongjumpExceptionE"
 "_ZTSN4Rcpp8internal20InterruptedExceptionE"
 "_ZTSN4Rcpp8RostreamILb0EEE"
 "_ZTSN4Rcpp8RostreamILb1EEE"
 "_ZTSN4Rcpp9exceptionE"
 "_ZTSSt11logic_error"
 "_ZTSSt9bad_alloc"
 "_ZTSSt9exception"
 "_ZTTN4Rcpp8RostreamILb0EEE"
 "_ZTTN4Rcpp8RostreamILb1EEE"
 "_ZTv0_n24_N4Rcpp8RostreamILb0EED0Ev"
 "_ZTv0_n24_N4Rcpp8RostreamILb0EED1Ev"
 "_ZTv0_n24_N4Rcpp8RostreamILb1EED0Ev"
 "_ZTv0_n24_N4Rcpp8RostreamILb1EED1Ev"
 "_ZTVN4Rcpp10eval_errorE"
 "_ZTVN4Rcpp10RstreambufILb0EEE"
 "_ZTVN4Rcpp10RstreambufILb1EEE"
 "_ZTVN4Rcpp12not_a_matrixE"
 "_ZTVN4Rcpp14not_compatibleE"
 "_ZTVN4Rcpp8RostreamILb0EEE"
 "_ZTVN4Rcpp8RostreamILb1EEE"
 "_ZTVN4Rcpp9exceptionE"
 "_ZZ11stack_tracePKciE3fun"
 "_ZZ20rcpp_get_stack_tracevE3fun"
 "_ZZ20rcpp_set_stack_traceP7SEXPRECE3fun"
 "_ZZ7dataptrP7SEXPRECE3fun"
 "_ZZ8demangleRKSsE3fun"
 "_ZZN4arma16arma_cerr_streamIcEERSoPSoE11cerr_stream"
 "_ZZN4Rcpp8internal12exitRNGScopeEvE3fun"
 "_ZZN4Rcpp8internal13enterRNGScopeEvE3fun"
 "R_init_MatrixFact"
 "_Z7SO_BIN3N4arma3MatIdEEiS1_S1_didid"
 "_ZGVN4arma5DatumIdE3nanE"
 "_ZGVN4arma5DatumIiE3nanE"
 "_ZGVZ7dataptrP7SEXPRECE3fun"
 "_ZN4arma10eglue_coreINS_11eglue_minusEE5applyINS_3MatIdEENS_3eOpINS_5eGlueIS5_NS6_IS5_NS_7eop_expEEENS_10eglue_plusEEENS_7eop_logEEENS7_IS5_S5_NS_11eglue_schurEEEEEvRT_RKNS7_IT0_T1_S1_EE"
 "_ZN4arma10eglue_coreINS_11eglue_minusEE5applyINS_3MatIdEENS_5eGlueIS5_NS6_IS5_NS_3eOpINS7_INS_4GlueIS5_NS_2OpIS5_NS_9op_htransEEENS_10glue_timesEEENS_7eop_negEEENS_7eop_expEEENS_10eglue_plusEEENS_9eglue_divEEES5_EEvRT_RKNS6_IT0_T1_S1_EE"
 "_ZN4arma10eglue_coreINS_11eglue_minusEE5applyINS_3MatIdEENS_5eGlueIS5_NS6_IS5_NS_3eOpINS7_IS5_NS_7eop_negEEENS_7eop_expEEENS_10eglue_plusEEENS_9eglue_divEEES5_EEvRT_RKNS6_IT0_T1_S1_EE"
 "_ZN4arma10eglue_coreINS_11eglue_minusEE5applyINS_3MatIdEES5_NS_3eOpINS_5eGlueIS5_S5_NS_9eglue_divEEENS_16eop_scalar_timesEEEEEvRT_RKNS7_IT0_T1_S1_EE"
 "_ZN4arma10eglue_coreINS_9eglue_divEE5applyINS_3MatIdEENS_3eOpIS5_NS_7eop_expEEENS6_INS_5eGlueIS5_S8_NS_10eglue_plusEEENS_10eop_squareEEEEEvRT_RKNS9_IT0_T1_S1_EE"
 "_ZN4arma10glue_times5applyIdLb0ELb0ELb0ENS_3MatIdEES3_EEvRNS2_IT_EERKT3_RKT4_S4_"
 "_ZN4arma10glue_times5applyIdLb0ELb0ELb1ELb0ELb1ENS_3MatIdEES3_S3_S3_EEvRNS2_IT_EERKT5_RKT6_RKT7_RKT8_S4_"
 "_ZN4arma10glue_times5applyIdLb0ELb1ELb0ENS_3MatIdEES3_EEvRNS2_IT_EERKT3_RKT4_S4_"
 "_ZN4arma10glue_times5applyIdLb1ELb0ELb0ENS_3MatIdEES3_EEvRNS2_IT_EERKT3_RKT4_S4_"
 "_ZN4arma10glue_times5applyIdLb1ELb0ELb1ENS_3MatIdEES3_EEvRNS2_IT_EERKT3_RKT4_S4_"
 "_ZN4arma11syrk_helper35inplace_copy_upper_tri_to_lower_triIdEEvRNS_3MatIT_EE"
 "_ZN4arma13subview_elem1IdNS_4mtOpIjNS1_IjNS_3MatIdEENS_14op_rel_lt_postEEENS_14op_find_simpleEEEE10inplace_opINS_15op_internal_equEEEvd"
 "_ZN4arma14glue_join_rows13apply_noaliasINS_3ColIdEES3_EEvRNS_3MatINT_9elem_typeEEERKNS_5ProxyIS5_EERKNS9_IT0_EE"
 "_ZN4arma14glue_join_rows13apply_noaliasINS_3MatIdEENS_3eOpIS3_NS_7eop_negEEEEEvRNS2_INT_9elem_typeEEERKNS_5ProxyIS7_EERKNSB_IT0_EE"
 "_ZN4arma14glue_join_rows13apply_noaliasINS_3MatIdEES3_EEvRNS2_INT_9elem_typeEEERKNS_5ProxyIS4_EERKNS8_IT0_EE"
 "_ZN4arma16gemm_emul_tinysqILb0ELb0ELb0EE5applyIdNS_3MatIdEES4_EEvRNS3_IT_EERKT0_RKT1_S5_S5_"
 "_ZN4arma16gemm_emul_tinysqILb0ELb1ELb0EE5applyIdNS_3MatIdEES4_EEvRNS3_IT_EERKT0_RKT1_S5_S5_"
 "_ZN4arma16gemm_emul_tinysqILb1ELb0ELb0EE5applyIdNS_3MatIdEES4_EEvRNS3_IT_EERKT0_RKT1_S5_S5_"
 "_ZN4arma16gemv_emul_tinysqILb0ELb0ELb0EE5applyIdNS_3MatIdEEEEvPT_RKT0_PKS5_S5_S5_"
 "_ZN4arma16gemv_emul_tinysqILb0ELb1ELb0EE5applyIdNS_3MatIdEEEEvPT_RKT0_PKS5_S5_S5_"
 "_ZN4arma16gemv_emul_tinysqILb1ELb0ELb0EE5applyIdNS_3MatIdEEEEvPT_RKT0_PKS5_S5_S5_"
 "_ZN4arma16gemv_emul_tinysqILb1ELb1ELb0EE5applyIdNS_3MatIdEEEEvPT_RKT0_PKS5_S5_S5_"
 "_ZN4arma17accu_proxy_linearINS_5eGlueINS1_INS_4GlueINS_2OpINS_3MatIdEENS_9op_htransEEES5_NS_10glue_timesEEES5_NS_11eglue_minusEEESB_NS_11eglue_schurEEEEENT_9elem_typeERKNS_5ProxyISE_EE"
 "_ZN4arma19glue_times_redirectILj4EE5applyINS_3eOpINS_3MatIdEENS_16eop_scalar_timesEEENS_2OpINS_5eGlueIS5_NS_4GlueINS8_IS5_NS_10op_htrans2EEES5_NS_10glue_timesEEENS_10eglue_plusEEENS_6op_invEEENS8_IS5_NS_9op_htransEEES5_EEvRNS4_INT_9elem_typeEEERKNSA_INSA_INSA_ISL_T0_SD_EET1_SD_EET2_SD_EE"
 "_ZN4arma27glue_times_redirect2_helperILb0EE5applyINS_3MatIdEENS_2OpIS4_NS_9op_htransEEEEEvRNS3_INT_9elem_typeEEERKNS_4GlueIS8_T0_NS_10glue_timesEEE"
 "_ZN4arma3MatIdE9init_coldEv"
 "_ZN4arma3MatIdE9init_warmEjj"
 "_ZN4arma3MatIdE9steal_memERS1_"
 "_ZN4arma3MatIdEaSERKS1_"
 "_ZN4arma3MatIdEC1ERKS1_"
 "_ZN4arma3MatIdED1Ev"
 "_ZN4arma3MatIdED2Ev"
 "_ZN4arma3MatIjE5resetEv"
 "_ZN4arma3MatIjE9init_warmEjj"
 "_ZN4arma3MatIjED1Ev"
 "_ZN4arma5DatumIdE3nanE"
 "_ZN4arma5DatumIiE3nanE"
 "_ZN4arma5ProxyINS_4GlueINS_2OpINS_3MatIdEENS_9op_htransEEES4_NS_10glue_timesEEEEC1ERKS8_"
 "_ZN4arma6auxlib8inv_tinyIdEEbRNS_3MatIT_EERKS4_"
 "_ZN4arma6op_dot10direct_dotIdEENS_14arma_real_onlyIT_E6resultEjPKS3_S7_"
 "_ZN4arma7op_mean8mean_allINS_5eGlueINS_3eOpINS2_INS_3MatIdEENS3_IS5_NS_7eop_expEEENS_10eglue_plusEEENS_7eop_logEEENS2_IS5_S5_NS_11eglue_schurEEENS_11eglue_minusEEEEENT_9elem_typeERKNS_4BaseISH_SG_EE"
 "_ZN4arma7subviewIdE10inplace_opINS_15op_internal_equENS_3MatIdEEEEvRKNS_4BaseIdT0_EEPKc"
 "_ZN4arma8arrayops10copy_smallIdEEvPT_PKS2_j"
 "_ZN4arma8arrayops10copy_smallIjEEvPT_PKS2_j"
 "_ZN4arma8arrayops17inplace_set_smallIdEEvPT_S2_j"
 "_ZN4arma8eop_coreINS_7eop_negEE5applyINS_3MatIdEES5_EEvRT_RKNS_3eOpIT0_S1_EE"
 "_ZN4arma9op_strans17apply_mat_noaliasIdNS_3MatIdEEEEvRNS2_IT_EERKT0_"
 "_ZN4arma9op_strans24apply_mat_noalias_tinysqIdNS_3MatIdEEEEvRNS2_IT_EERKT0_"
 "_ZN4arma9syrk_emulILb1ELb1ELb0EE5applyIdNS_3MatIdEEEEvRNS3_IT_EERKT0_S5_S5_"
 "_ZN4Rcpp10RstreambufILb0EE4syncEv"
 "_ZN4Rcpp10RstreambufILb0EE6xsputnEPKcx"
 "_ZN4Rcpp10RstreambufILb0EE8overflowEi"
 "_ZN4Rcpp10RstreambufILb0EED0Ev"
 "_ZN4Rcpp10RstreambufILb0EED1Ev"
 "_ZN4Rcpp10RstreambufILb1EE4syncEv"
 "_ZN4Rcpp10RstreambufILb1EE6xsputnEPKcx"
 "_ZN4Rcpp10RstreambufILb1EE8overflowEi"
 "_ZN4Rcpp10RstreambufILb1EED0Ev"
 "_ZN4Rcpp10RstreambufILb1EED1Ev"
 "_ZN4Rcpp13RcppArmadillo9arma_wrapIN4arma3MatIdEEEEP7SEXPRECRKT_RKNS_9DimensionE"
 "_ZN4Rcpp4wrapIdEEP7SEXPRECRKN4arma3MatIT_EE"
 "_ZN4Rcpp6VectorILi19ENS_15PreserveStorageEE16create__dispatchINS_6traits12named_objectIN4arma3MatIdEEEES9_S9_NS5_IiEENS5_IdEESB_EES2_NS4_17integral_constantIbLb1EEERKT_RKT0_RKT1_RKT2_RKT3_RKT4_"
 "_ZN4Rcpp8RostreamILb0EED0Ev"
 "_ZN4Rcpp8RostreamILb0EED1Ev"
 "_ZN4Rcpp8RostreamILb1EED0Ev"
 "_ZN4Rcpp8RostreamILb1EED1Ev"
 "_ZTCN4Rcpp8RostreamILb0EEE0_So"
 "_ZTCN4Rcpp8RostreamILb1EEE0_So"
 "_ZTIN4Rcpp10RstreambufILb0EEE"
 "_ZTIN4Rcpp10RstreambufILb1EEE"
 "_ZTIN4Rcpp8RostreamILb0EEE"
 "_ZTIN4Rcpp8RostreamILb1EEE"
 "_ZTISt11logic_error"
 "_ZTISt13runtime_error"
 "_ZTISt9bad_alloc"
 "_ZTISt9exception"
 "_ZTSN4Rcpp10RstreambufILb0EEE"
 "_ZTSN4Rcpp10RstreambufILb1EEE"
 "_ZTSN4Rcpp8RostreamILb0EEE"
 "_ZTSN4Rcpp8RostreamILb1EEE"
 "_ZTSSt11logic_error"
 "_ZTSSt13runtime_error"
 "_ZTSSt9bad_alloc"
 "_ZTSSt9exception"
 "_ZTTN4Rcpp8RostreamILb0EEE"
 "_ZTTN4Rcpp8RostreamILb1EEE"
 "_ZTv0_n24_N4Rcpp8RostreamILb0EED0Ev"
 "_ZTv0_n24_N4Rcpp8RostreamILb0EED1Ev"
 "_ZTv0_n24_N4Rcpp8RostreamILb1EED0Ev"
 "_ZTv0_n24_N4Rcpp8RostreamILb1EED1Ev"
 "_ZTVN4Rcpp10RstreambufILb0EEE"
 "_ZTVN4Rcpp10RstreambufILb1EEE"
 "_ZTVN4Rcpp8RostreamILb0EEE"
 "_ZTVN4Rcpp8RostreamILb1EEE"
 "_ZZ7dataptrP7SEXPRECE3fun"
 "_ZZN4arma16arma_cerr_streamIcEERSoPSoE11cerr_stream"
 "_Z6SO_NMFN4arma3MatIdEEiS1_S1_didi"
 "_ZGVN4arma5DatumIdE3nanE"
 "_ZGVN4arma5DatumIiE3nanE"
 "_ZGVZ7dataptrP7SEXPRECE3fun"
 "_ZN4arma10glue_times5applyIdLb0ELb0ELb0ENS_3MatIdEES3_EEvRNS2_IT_EERKT3_RKT4_S4_"
 "_ZN4arma10glue_times5applyIdLb0ELb0ELb1ELb0ELb0ENS_3MatIdEES3_S3_S3_EEvRNS2_IT_EERKT5_RKT6_RKT7_RKT8_S4_"
 "_ZN4arma10glue_times5applyIdLb0ELb1ELb0ELb0ENS_3MatIdEES3_S3_EEvRNS2_IT_EERKT4_RKT5_RKT6_S4_"
 "_ZN4arma10glue_times5applyIdLb0ELb1ELb0ENS_3MatIdEES3_EEvRNS2_IT_EERKT3_RKT4_S4_"
 "_ZN4arma10glue_times5applyIdLb1ELb0ELb0ENS_3MatIdEES3_EEvRNS2_IT_EERKT3_RKT4_S4_"
 "_ZN4arma13subview_elem1IdNS_4mtOpIjNS1_IjNS_3MatIdEENS_14op_rel_lt_postEEENS_14op_find_simpleEEEE10inplace_opINS_15op_internal_equEEEvd"
 "_ZN4arma14glue_join_rows13apply_noaliasINS_3ColIdEES3_EEvRNS_3MatINT_9elem_typeEEERKNS_5ProxyIS5_EERKNS9_IT0_EE"
 "_ZN4arma14glue_join_rows13apply_noaliasINS_3MatIdEENS_3eOpIS3_NS_7eop_negEEEEEvRNS2_INT_9elem_typeEEERKNS_5ProxyIS7_EERKNSB_IT0_EE"
 "_ZN4arma14glue_join_rows13apply_noaliasINS_3MatIdEES3_EEvRNS2_INT_9elem_typeEEERKNS_5ProxyIS4_EERKNS8_IT0_EE"
 "_ZN4arma16gemm_emul_tinysqILb0ELb0ELb0EE5applyIdNS_3MatIdEES4_EEvRNS3_IT_EERKT0_RKT1_S5_S5_"
 "_ZN4arma16gemm_emul_tinysqILb1ELb0ELb0EE5applyIdNS_3MatIdEES4_EEvRNS3_IT_EERKT0_RKT1_S5_S5_"
 "_ZN4arma16gemv_emul_tinysqILb0ELb0ELb0EE5applyIdNS_3MatIdEEEEvPT_RKT0_PKS5_S5_S5_"
 "_ZN4arma16gemv_emul_tinysqILb1ELb0ELb0EE5applyIdNS_3MatIdEEEEvPT_RKT0_PKS5_S5_S5_"
 "_ZN4arma17accu_proxy_linearINS_3eOpINS_5eGlueINS_3MatIdEES4_NS_11eglue_minusEEENS_10eop_squareEEEEENT_9elem_typeERKNS_5ProxyIS9_EE"
 "_ZN4arma17accu_proxy_linearINS_5eGlueINS1_INS_4GlueINS_2OpINS_3MatIdEENS_9op_htransEEES5_NS_10glue_timesEEES5_NS_11eglue_minusEEESB_NS_11eglue_schurEEEEENT_9elem_typeERKNS_5ProxyISE_EE"
 "_ZN4arma27glue_times_redirect2_helperILb0EE5applyINS_2OpINS_3MatIdEENS_9op_htransEEES5_EEvRNS4_INT_9elem_typeEEERKNS_4GlueIS8_T0_NS_10glue_timesEEE"
 "_ZN4arma27glue_times_redirect2_helperILb0EE5applyINS_3MatIdEENS_2OpIS4_NS_9op_htransEEEEEvRNS3_INT_9elem_typeEEERKNS_4GlueIS8_T0_NS_10glue_timesEEE"
 "_ZN4arma3MatIdE9init_coldEv"
 "_ZN4arma3MatIdE9init_warmEjj"
 "_ZN4arma3MatIdE9steal_memERS1_"
 "_ZN4arma3MatIdEaSERKS1_"
 "_ZN4arma3MatIdEC1ERKS1_"
 "_ZN4arma3MatIdED1Ev"
 "_ZN4arma3MatIdED2Ev"
 "_ZN4arma3MatIjE5resetEv"
 "_ZN4arma3MatIjE9init_warmEjj"
 "_ZN4arma3MatIjED1Ev"
 "_ZN4arma5DatumIdE3nanE"
 "_ZN4arma5DatumIiE3nanE"
 "_ZN4arma5ProxyINS_4GlueINS_2OpINS_3MatIdEENS_9op_htransEEES4_NS_10glue_timesEEEEC1ERKS8_"
 "_ZN4arma6auxlib8inv_tinyIdEEbRNS_3MatIT_EERKS4_"
 "_ZN4arma6op_dot10direct_dotIdEENS_14arma_real_onlyIT_E6resultEjPKS3_S7_"
 "_ZN4arma7subviewIdE10inplace_opINS_15op_internal_equENS_3MatIdEEEEvRKNS_4BaseIdT0_EEPKc"
 "_ZN4arma8arrayops10copy_smallIdEEvPT_PKS2_j"
 "_ZN4arma8arrayops10copy_smallIjEEvPT_PKS2_j"
 "_ZN4arma8arrayops11inplace_setIdEEvPT_S2_j"
 "_ZN4arma8arrayops17inplace_set_smallIdEEvPT_S2_j"
 "_ZN4arma8eop_coreINS_10eop_squareEE5applyINS_3MatIdEENS_5eGlueIS5_S5_NS_11eglue_minusEEEEEvRT_RKNS_3eOpIT0_S1_EE"
 "_ZN4arma8eop_coreINS_7eop_negEE5applyINS_3MatIdEES5_EEvRT_RKNS_3eOpIT0_S1_EE"
 "_ZN4arma9op_strans17apply_mat_noaliasIdNS_3MatIdEEEEvRNS2_IT_EERKT0_"
 "_ZN4arma9op_strans24apply_mat_noalias_tinysqIdNS_3MatIdEEEEvRNS2_IT_EERKT0_"
 "_ZN4arma9op_symmat5applyINS_3MatIdEEEEvRNS2_INT_9elem_typeEEERKNS_2OpIS4_S0_EE"
 "_ZN4Rcpp10RstreambufILb0EE4syncEv"
 "_ZN4Rcpp10RstreambufILb0EE6xsputnEPKcx"
 "_ZN4Rcpp10RstreambufILb0EE8overflowEi"
 "_ZN4Rcpp10RstreambufILb0EED0Ev"
 "_ZN4Rcpp10RstreambufILb0EED1Ev"
 "_ZN4Rcpp10RstreambufILb1EE4syncEv"
 "_ZN4Rcpp10RstreambufILb1EE6xsputnEPKcx"
 "_ZN4Rcpp10RstreambufILb1EE8overflowEi"
 "_ZN4Rcpp10RstreambufILb1EED0Ev"
 "_ZN4Rcpp10RstreambufILb1EED1Ev"
 "_ZN4Rcpp13RcppArmadillo9arma_wrapIN4arma3MatIdEEEEP7SEXPRECRKT_RKNS_9DimensionE"
 "_ZN4Rcpp4wrapIdEEP7SEXPRECRKN4arma3MatIT_EE"
 "_ZN4Rcpp6VectorILi19ENS_15PreserveStorageEE16create__dispatchINS_6traits12named_objectIN4arma3MatIdEEEES9_S9_NS5_IiEENS5_IdEESB_SB_EES2_NS4_17integral_constantIbLb1EEERKT_RKT0_RKT1_RKT2_RKT3_RKT4_RKT5_"
 "_ZN4Rcpp8RostreamILb0EED0Ev"
 "_ZN4Rcpp8RostreamILb0EED1Ev"
 "_ZN4Rcpp8RostreamILb1EED0Ev"
 "_ZN4Rcpp8RostreamILb1EED1Ev"
 "_ZTCN4Rcpp8RostreamILb0EEE0_So"
 "_ZTCN4Rcpp8RostreamILb1EEE0_So"
 "_ZTIN4Rcpp10RstreambufILb0EEE"
 "_ZTIN4Rcpp10RstreambufILb1EEE"
 "_ZTIN4Rcpp8RostreamILb0EEE"
 "_ZTIN4Rcpp8RostreamILb1EEE"
 "_ZTISt11logic_error"
 "_ZTISt13runtime_error"
 "_ZTISt9bad_alloc"
 "_ZTISt9exception"
 "_ZTSN4Rcpp10RstreambufILb0EEE"
 "_ZTSN4Rcpp10RstreambufILb1EEE"
 "_ZTSN4Rcpp8RostreamILb0EEE"
 "_ZTSN4Rcpp8RostreamILb1EEE"
 "_ZTSSt11logic_error"
 "_ZTSSt13runtime_error"
 "_ZTSSt9bad_alloc"
 "_ZTSSt9exception"
 "_ZTTN4Rcpp8RostreamILb0EEE"
 "_ZTTN4Rcpp8RostreamILb1EEE"
 "_ZTv0_n24_N4Rcpp8RostreamILb0EED0Ev"
 "_ZTv0_n24_N4Rcpp8RostreamILb0EED1Ev"
 "_ZTv0_n24_N4Rcpp8RostreamILb1EED0Ev"
 "_ZTv0_n24_N4Rcpp8RostreamILb1EED1Ev"
 "_ZTVN4Rcpp10RstreambufILb0EEE"
 "_ZTVN4Rcpp10RstreambufILb1EEE"
 "_ZTVN4Rcpp8RostreamILb0EEE"
 "_ZTVN4Rcpp8RostreamILb1EEE"
 "_ZZ7dataptrP7SEXPRECE3fun"
 "_ZZN4arma16arma_cerr_streamIcEERSoPSoE11cerr_stream"
 "_Z7SemiNMFN4arma3MatIdEEiS1_S1_di"
 "_ZGVN4arma5DatumIdE3nanE"
 "_ZGVN4arma5DatumIiE3nanE"
 "_ZGVZ7dataptrP7SEXPRECE3fun"
 "_ZN4arma10glue_times5applyIdLb0ELb0ELb0ENS_3MatIdEES3_EEvRNS2_IT_EERKT3_RKT4_S4_"
 "_ZN4arma10glue_times5applyIdLb0ELb1ELb0ENS_3MatIdEES3_EEvRNS2_IT_EERKT3_RKT4_S4_"
 "_ZN4arma10glue_times5applyIdLb1ELb0ELb0ENS_3MatIdEES3_EEvRNS2_IT_EERKT3_RKT4_S4_"
 "_ZN4arma14glue_join_rows13apply_noaliasINS_3ColIdEES3_EEvRNS_3MatINT_9elem_typeEEERKNS_5ProxyIS5_EERKNS9_IT0_EE"
 "_ZN4arma16gemm_emul_tinysqILb0ELb0ELb0EE5applyIdNS_3MatIdEES4_EEvRNS3_IT_EERKT0_RKT1_S5_S5_"
 "_ZN4arma16gemm_emul_tinysqILb1ELb0ELb0EE5applyIdNS_3MatIdEES4_EEvRNS3_IT_EERKT0_RKT1_S5_S5_"
 "_ZN4arma16gemv_emul_tinysqILb0ELb0ELb0EE5applyIdNS_3MatIdEEEEvPT_RKT0_PKS5_S5_S5_"
 "_ZN4arma16gemv_emul_tinysqILb1ELb0ELb0EE5applyIdNS_3MatIdEEEEvPT_RKT0_PKS5_S5_S5_"
 "_ZN4arma27glue_times_redirect2_helperILb0EE5applyINS_2OpINS_3MatIdEENS_9op_htransEEES5_EEvRNS4_INT_9elem_typeEEERKNS_4GlueIS8_T0_NS_10glue_timesEEE"
 "_ZN4arma27glue_times_redirect2_helperILb0EE5applyINS_3MatIdEENS_2OpIS4_NS_9op_htransEEEEEvRNS3_INT_9elem_typeEEERKNS_4GlueIS8_T0_NS_10glue_timesEEE"
 "_ZN4arma3MatIdE9init_coldEv"
 "_ZN4arma3MatIdE9init_warmEjj"
 "_ZN4arma3MatIdE9steal_memERS1_"
 "_ZN4arma3MatIdEaSERKS1_"
 "_ZN4arma3MatIdED1Ev"
 "_ZN4arma3MatIdED2Ev"
 "_ZN4arma5DatumIdE3nanE"
 "_ZN4arma5DatumIiE3nanE"
 "_ZN4arma6auxlib8inv_tinyIdEEbRNS_3MatIT_EERKS4_"
 "_ZN4arma7op_mean8mean_allINS_3eOpINS_5eGlueINS_3MatIdEES5_NS_11eglue_minusEEENS_10eop_squareEEEEENT_9elem_typeERKNS_4BaseISB_SA_EE"
 "_ZN4arma8arrayops10copy_smallIdEEvPT_PKS2_j"
 "_ZN4arma8arrayops17inplace_set_smallIdEEvPT_S2_j"
 "_ZN4arma8eop_coreINS_19eop_scalar_div_postEE5applyINS_3MatIdEENS_5eGlueINS_3eOpIS5_NS_7eop_absEEES5_NS_10eglue_plusEEEEEvRT_RKNS7_IT0_S1_EE"
 "_ZN4arma8eop_coreINS_19eop_scalar_div_postEE5applyINS_3MatIdEENS_5eGlueINS_3eOpIS5_NS_7eop_absEEES5_NS_11eglue_minusEEEEEvRT_RKNS7_IT0_S1_EE"
 "_ZN4arma9op_strans24apply_mat_noalias_tinysqIdNS_3MatIdEEEEvRNS2_IT_EERKT0_"
 "_ZN4arma9op_symmat5applyINS_3MatIdEEEEvRNS2_INT_9elem_typeEEERKNS_2OpIS4_S0_EE"
 "_ZN4Rcpp10RstreambufILb0EE4syncEv"
 "_ZN4Rcpp10RstreambufILb0EE6xsputnEPKcx"
 "_ZN4Rcpp10RstreambufILb0EE8overflowEi"
 "_ZN4Rcpp10RstreambufILb0EED0Ev"
 "_ZN4Rcpp10RstreambufILb0EED1Ev"
 "_ZN4Rcpp10RstreambufILb1EE4syncEv"
 "_ZN4Rcpp10RstreambufILb1EE6xsputnEPKcx"
 "_ZN4Rcpp10RstreambufILb1EE8overflowEi"
 "_ZN4Rcpp10RstreambufILb1EED0Ev"
 "_ZN4Rcpp10RstreambufILb1EED1Ev"
 "_ZN4Rcpp13RcppArmadillo9arma_wrapIN4arma3MatIdEEEEP7SEXPRECRKT_RKNS_9DimensionE"
 "_ZN4Rcpp4wrapIdEEP7SEXPRECRKN4arma3MatIT_EE"
 "_ZN4Rcpp6VectorILi19ENS_15PreserveStorageEE16create__dispatchINS_6traits12named_objectIN4arma3MatIdEEEES9_S9_NS5_IdEESA_NS5_IiEEEES2_NS4_17integral_constantIbLb1EEERKT_RKT0_RKT1_RKT2_RKT3_RKT4_"
 "_ZN4Rcpp8RostreamILb0EED0Ev"
 "_ZN4Rcpp8RostreamILb0EED1Ev"
 "_ZN4Rcpp8RostreamILb1EED0Ev"
 "_ZN4Rcpp8RostreamILb1EED1Ev"
 "_ZTCN4Rcpp8RostreamILb0EEE0_So"
 "_ZTCN4Rcpp8RostreamILb1EEE0_So"
 "_ZTIN4Rcpp10RstreambufILb0EEE"
 "_ZTIN4Rcpp10RstreambufILb1EEE"
 "_ZTIN4Rcpp8RostreamILb0EEE"
 "_ZTIN4Rcpp8RostreamILb1EEE"
 "_ZTISt11logic_error"
 "_ZTISt13runtime_error"
 "_ZTISt9bad_alloc"
 "_ZTISt9exception"
 "_ZTSN4Rcpp10RstreambufILb0EEE"
 "_ZTSN4Rcpp10RstreambufILb1EEE"
 "_ZTSN4Rcpp8RostreamILb0EEE"
 "_ZTSN4Rcpp8RostreamILb1EEE"
 "_ZTSSt11logic_error"
 "_ZTSSt13runtime_error"
 "_ZTSSt9bad_alloc"
 "_ZTSSt9exception"
 "_ZTTN4Rcpp8RostreamILb0EEE"
 "_ZTTN4Rcpp8RostreamILb1EEE"
 "_ZTv0_n24_N4Rcpp8RostreamILb0EED0Ev"
 "_ZTv0_n24_N4Rcpp8RostreamILb0EED1Ev"
 "_ZTv0_n24_N4Rcpp8RostreamILb1EED0Ev"
 "_ZTv0_n24_N4Rcpp8RostreamILb1EED1Ev"
 "_ZTVN4Rcpp10RstreambufILb0EEE"
 "_ZTVN4Rcpp10RstreambufILb1EEE"
 "_ZTVN4Rcpp8RostreamILb0EEE"
 "_ZTVN4Rcpp8RostreamILb1EEE"
 "_ZZ7dataptrP7SEXPRECE3fun"
 "_ZZN4arma16arma_cerr_streamIcEERSoPSoE11cerr_stream"
 "_Z6lognmfN4arma3MatIdEEiS1_S1_didd"
 "_ZGVN4arma5DatumIdE3nanE"
 "_ZGVN4arma5DatumIiE3nanE"
 "_ZGVZ7dataptrP7SEXPRECE3fun"
 "_ZN4arma10eglue_coreINS_11eglue_minusEE5applyINS_3MatIdEENS_3eOpINS_5eGlueIS5_NS6_IS5_NS_7eop_expEEENS_10eglue_plusEEENS_7eop_logEEENS7_IS5_S5_NS_11eglue_schurEEEEEvRT_RKNS7_IT0_T1_S1_EE"
 "_ZN4arma10eglue_coreINS_9eglue_divEE5applyINS_3MatIdEENS_5eGlueINS_3eOpIS5_NS_16eop_scalar_timesEEES5_NS_11eglue_minusEEENS6_IS5_NS7_INS6_ISB_NS_4GlueIS5_NS_2OpIS5_NS_9op_htransEEENS_10glue_timesEEENS_11eglue_schurEEENS_7eop_expEEENS_10eglue_plusEEEEEvRT_RKNS6_IT0_T1_S1_EE"
 "_ZN4arma10glue_times5applyIdLb0ELb0ELb1ENS_3MatIdEES3_EEvRNS2_IT_EERKT3_RKT4_S4_"
 "_ZN4arma10glue_times5applyIdLb0ELb1ELb0ENS_3MatIdEES3_EEvRNS2_IT_EERKT3_RKT4_S4_"
 "_ZN4arma10glue_times5applyIdLb1ELb0ELb1ENS_3MatIdEES3_EEvRNS2_IT_EERKT3_RKT4_S4_"
 "_ZN4arma14glue_join_rows13apply_noaliasINS_3ColIdEES3_EEvRNS_3MatINT_9elem_typeEEERKNS_5ProxyIS5_EERKNS9_IT0_EE"
 "_ZN4arma14glue_join_rows13apply_noaliasINS_3MatIdEENS_3ColIdEEEEvRNS2_INT_9elem_typeEEERKNS_5ProxyIS6_EERKNSA_IT0_EE"
 "_ZN4arma16gemm_emul_tinysqILb0ELb0ELb0EE5applyIdNS_3MatIdEES4_EEvRNS3_IT_EERKT0_RKT1_S5_S5_"
 "_ZN4arma16gemv_emul_tinysqILb0ELb0ELb0EE5applyIdNS_3MatIdEEEEvPT_RKT0_PKS5_S5_S5_"
 "_ZN4arma16gemv_emul_tinysqILb0ELb1ELb0EE5applyIdNS_3MatIdEEEEvPT_RKT0_PKS5_S5_S5_"
 "_ZN4arma16gemv_emul_tinysqILb1ELb1ELb0EE5applyIdNS_3MatIdEEEEvPT_RKT0_PKS5_S5_S5_"
 "_ZN4arma27glue_times_redirect2_helperILb0EE5applyINS_3MatIdEENS_2OpIS4_NS_9op_htransEEEEEvRNS3_INT_9elem_typeEEERKNS_4GlueIS8_T0_NS_10glue_timesEEE"
 "_ZN4arma3MatIdE9init_coldEv"
 "_ZN4arma3MatIdE9init_warmEjj"
 "_ZN4arma3MatIdE9steal_memERS1_"
 "_ZN4arma3MatIdEC1ERKS1_"
 "_ZN4arma3MatIdED1Ev"
 "_ZN4arma3MatIdED2Ev"
 "_ZN4arma3MatIjE5resetEv"
 "_ZN4arma3MatIjE9init_warmEjj"
 "_ZN4arma3MatIjED1Ev"
 "_ZN4arma5DatumIdE3nanE"
 "_ZN4arma5DatumIiE3nanE"
 "_ZN4arma7op_mean8mean_allINS_5eGlueINS_3eOpINS2_INS_3MatIdEENS3_IS5_NS_7eop_expEEENS_10eglue_plusEEENS_7eop_logEEENS2_IS5_S5_NS_11eglue_schurEEENS_11eglue_minusEEEEENT_9elem_typeERKNS_4BaseISH_SG_EE"
 "_ZN4arma8arrayops10copy_smallIdEEvPT_PKS2_j"
 "_ZN4arma8arrayops10copy_smallIjEEvPT_PKS2_j"
 "_ZN4arma8arrayops11inplace_setIdEEvPT_S2_j"
 "_ZN4arma8arrayops17inplace_set_smallIdEEvPT_S2_j"
 "_ZN4arma9op_strans24apply_mat_noalias_tinysqIdNS_3MatIdEEEEvRNS2_IT_EERKT0_"
 "_ZN4Rcpp10RstreambufILb0EE4syncEv"
 "_ZN4Rcpp10RstreambufILb0EE6xsputnEPKcx"
 "_ZN4Rcpp10RstreambufILb0EE8overflowEi"
 "_ZN4Rcpp10RstreambufILb0EED0Ev"
 "_ZN4Rcpp10RstreambufILb0EED1Ev"
 "_ZN4Rcpp10RstreambufILb1EE4syncEv"
 "_ZN4Rcpp10RstreambufILb1EE6xsputnEPKcx"
 "_ZN4Rcpp10RstreambufILb1EE8overflowEi"
 "_ZN4Rcpp10RstreambufILb1EED0Ev"
 "_ZN4Rcpp10RstreambufILb1EED1Ev"
 "_ZN4Rcpp13RcppArmadillo9arma_wrapIN4arma3MatIdEEEEP7SEXPRECRKT_RKNS_9DimensionE"
 "_ZN4Rcpp4wrapIdEEP7SEXPRECRKN4arma3MatIT_EE"
 "_ZN4Rcpp6VectorILi19ENS_15PreserveStorageEE16create__dispatchINS_6traits12named_objectIN4arma3MatIdEEEES9_S9_NS5_IiEENS5_IdEEEES2_NS4_17integral_constantIbLb1EEERKT_RKT0_RKT1_RKT2_RKT3_"
 "_ZN4Rcpp8RostreamILb0EED0Ev"
 "_ZN4Rcpp8RostreamILb0EED1Ev"
 "_ZN4Rcpp8RostreamILb1EED0Ev"
 "_ZN4Rcpp8RostreamILb1EED1Ev"
 "_ZNKSt5ctypeIcE8do_widenEc"
 "_ZTCN4Rcpp8RostreamILb0EEE0_So"
 "_ZTCN4Rcpp8RostreamILb1EEE0_So"
 "_ZTIN4Rcpp10RstreambufILb0EEE"
 "_ZTIN4Rcpp10RstreambufILb1EEE"
 "_ZTIN4Rcpp8RostreamILb0EEE"
 "_ZTIN4Rcpp8RostreamILb1EEE"
 "_ZTISt11logic_error"
 "_ZTISt13runtime_error"
 "_ZTISt9bad_alloc"
 "_ZTISt9exception"
 "_ZTSN4Rcpp10RstreambufILb0EEE"
 "_ZTSN4Rcpp10RstreambufILb1EEE"
 "_ZTSN4Rcpp8RostreamILb0EEE"
 "_ZTSN4Rcpp8RostreamILb1EEE"
 "_ZTSSt11logic_error"
 "_ZTSSt13runtime_error"
 "_ZTSSt9bad_alloc"
 "_ZTSSt9exception"
 "_ZTTN4Rcpp8RostreamILb0EEE"
 "_ZTTN4Rcpp8RostreamILb1EEE"
 "_ZTv0_n24_N4Rcpp8RostreamILb0EED0Ev"
 "_ZTv0_n24_N4Rcpp8RostreamILb0EED1Ev"
 "_ZTv0_n24_N4Rcpp8RostreamILb1EED0Ev"
 "_ZTv0_n24_N4Rcpp8RostreamILb1EED1Ev"
 "_ZTVN4Rcpp10RstreambufILb0EEE"
 "_ZTVN4Rcpp10RstreambufILb1EEE"
 "_ZTVN4Rcpp8RostreamILb0EEE"
 "_ZTVN4Rcpp8RostreamILb1EEE"
 "_ZZ7dataptrP7SEXPRECE3fun"
 "_ZZN4arma16arma_cerr_streamIcEERSoPSoE11cerr_stream"
 "_Z7NMF_LOGN4arma3MatIdEEiS1_S1_did"
 "_ZGVN4arma5DatumIdE3nanE"
 "_ZGVN4arma5DatumIiE3nanE"
 "_ZGVZ7dataptrP7SEXPRECE3fun"
 "_ZN4arma10eglue_coreINS_11eglue_minusEE5applyINS_3MatIdEENS_3eOpINS_5eGlueIS5_NS6_IS5_NS_7eop_expEEENS_10eglue_plusEEENS_7eop_logEEENS7_IS5_S5_NS_11eglue_schurEEEEEvRT_RKNS7_IT0_T1_S1_EE"
 "_ZN4arma10eglue_coreINS_9eglue_divEE5applyINS_3MatIdEENS_5eGlueINS_3eOpIS5_NS_16eop_scalar_timesEEES5_NS_11eglue_minusEEENS6_IS5_NS7_INS6_ISB_NS_4GlueIS5_NS_2OpIS5_NS_9op_htransEEENS_10glue_timesEEENS_11eglue_schurEEENS_7eop_expEEENS_10eglue_plusEEEEEvRT_RKNS6_IT0_T1_S1_EE"
 "_ZN4arma10glue_times5applyIdLb0ELb0ELb1ENS_3MatIdEES3_EEvRNS2_IT_EERKT3_RKT4_S4_"
 "_ZN4arma10glue_times5applyIdLb0ELb1ELb0ENS_3MatIdEES3_EEvRNS2_IT_EERKT3_RKT4_S4_"
 "_ZN4arma10glue_times5applyIdLb1ELb0ELb1ENS_3MatIdEES3_EEvRNS2_IT_EERKT3_RKT4_S4_"
 "_ZN4arma14glue_join_rows13apply_noaliasINS_3ColIdEES3_EEvRNS_3MatINT_9elem_typeEEERKNS_5ProxyIS5_EERKNS9_IT0_EE"
 "_ZN4arma16gemm_emul_tinysqILb0ELb0ELb0EE5applyIdNS_3MatIdEES4_EEvRNS3_IT_EERKT0_RKT1_S5_S5_"
 "_ZN4arma16gemm_emul_tinysqILb0ELb1ELb0EE5applyIdNS_3MatIdEES4_EEvRNS3_IT_EERKT0_RKT1_S5_S5_"
 "_ZN4arma16gemv_emul_tinysqILb0ELb0ELb0EE5applyIdNS_3MatIdEEEEvPT_RKT0_PKS5_S5_S5_"
 "_ZN4arma16gemv_emul_tinysqILb0ELb1ELb0EE5applyIdNS_3MatIdEEEEvPT_RKT0_PKS5_S5_S5_"
 "_ZN4arma16gemv_emul_tinysqILb1ELb1ELb0EE5applyIdNS_3MatIdEEEEvPT_RKT0_PKS5_S5_S5_"
 "_ZN4arma27glue_times_redirect2_helperILb0EE5applyINS_3MatIdEENS_2OpIS4_NS_9op_htransEEEEEvRNS3_INT_9elem_typeEEERKNS_4GlueIS8_T0_NS_10glue_timesEEE"
 "_ZN4arma3MatIdE9init_coldEv"
 "_ZN4arma3MatIdE9init_warmEjj"
 "_ZN4arma3MatIdE9steal_memERS1_"
 "_ZN4arma3MatIdEC1ERKS1_"
 "_ZN4arma3MatIdED1Ev"
 "_ZN4arma3MatIdED2Ev"
 "_ZN4arma3MatIjE5resetEv"
 "_ZN4arma3MatIjE9init_warmEjj"
 "_ZN4arma3MatIjED1Ev"
 "_ZN4arma5DatumIdE3nanE"
 "_ZN4arma5DatumIiE3nanE"
 "_ZN4arma7op_mean8mean_allINS_5eGlueINS_3eOpINS2_INS_3MatIdEENS3_IS5_NS_7eop_expEEENS_10eglue_plusEEENS_7eop_logEEENS2_IS5_S5_NS_11eglue_schurEEENS_11eglue_minusEEEEENT_9elem_typeERKNS_4BaseISH_SG_EE"
 "_ZN4arma8arrayops10copy_smallIdEEvPT_PKS2_j"
 "_ZN4arma8arrayops10copy_smallIjEEvPT_PKS2_j"
 "_ZN4arma8arrayops17inplace_set_smallIdEEvPT_S2_j"
 "_ZN4arma9op_strans24apply_mat_noalias_tinysqIdNS_3MatIdEEEEvRNS2_IT_EERKT0_"
 "_ZN4Rcpp10RstreambufILb0EE4syncEv"
 "_ZN4Rcpp10RstreambufILb0EE6xsputnEPKcx"
 "_ZN4Rcpp10RstreambufILb0EE8overflowEi"
 "_ZN4Rcpp10RstreambufILb0EED0Ev"
 "_ZN4Rcpp10RstreambufILb0EED1Ev"
 "_ZN4Rcpp10RstreambufILb1EE4syncEv"
 "_ZN4Rcpp10RstreambufILb1EE6xsputnEPKcx"
 "_ZN4Rcpp10RstreambufILb1EE8overflowEi"
 "_ZN4Rcpp10RstreambufILb1EED0Ev"
 "_ZN4Rcpp10RstreambufILb1EED1Ev"
 "_ZN4Rcpp13RcppArmadillo9arma_wrapIN4arma3MatIdEEEEP7SEXPRECRKT_RKNS_9DimensionE"
 "_ZN4Rcpp4wrapIdEEP7SEXPRECRKN4arma3MatIT_EE"
 "_ZN4Rcpp6VectorILi19ENS_15PreserveStorageEE16create__dispatchINS_6traits12named_objectIN4arma3MatIdEEEES9_S9_NS5_IiEENS5_IdEEEES2_NS4_17integral_constantIbLb1EEERKT_RKT0_RKT1_RKT2_RKT3_"
 "_ZN4Rcpp8RostreamILb0EED0Ev"
 "_ZN4Rcpp8RostreamILb0EED1Ev"
 "_ZN4Rcpp8RostreamILb1EED0Ev"
 "_ZN4Rcpp8RostreamILb1EED1Ev"
 "_ZTCN4Rcpp8RostreamILb0EEE0_So"
 "_ZTCN4Rcpp8RostreamILb1EEE0_So"
 "_ZTIN4Rcpp10RstreambufILb0EEE"
 "_ZTIN4Rcpp10RstreambufILb1EEE"
 "_ZTIN4Rcpp8RostreamILb0EEE"
 "_ZTIN4Rcpp8RostreamILb1EEE"
 "_ZTISt11logic_error"
 "_ZTISt13runtime_error"
 "_ZTISt9bad_alloc"
 "_ZTISt9exception"
 "_ZTSN4Rcpp10RstreambufILb0EEE"
 "_ZTSN4Rcpp10RstreambufILb1EEE"
 "_ZTSN4Rcpp8RostreamILb0EEE"
 "_ZTSN4Rcpp8RostreamILb1EEE"
 "_ZTSSt11logic_error"
 "_ZTSSt13runtime_error"
 "_ZTSSt9bad_alloc"
 "_ZTSSt9exception"
 "_ZTTN4Rcpp8RostreamILb0EEE"
 "_ZTTN4Rcpp8RostreamILb1EEE"
 "_ZTv0_n24_N4Rcpp8RostreamILb0EED0Ev"
 "_ZTv0_n24_N4Rcpp8RostreamILb0EED1Ev"
 "_ZTv0_n24_N4Rcpp8RostreamILb1EED0Ev"
 "_ZTv0_n24_N4Rcpp8RostreamILb1EED1Ev"
 "_ZTVN4Rcpp10RstreambufILb0EEE"
 "_ZTVN4Rcpp10RstreambufILb1EEE"
 "_ZTVN4Rcpp8RostreamILb0EEE"
 "_ZTVN4Rcpp8RostreamILb1EEE"
 "_ZZ7dataptrP7SEXPRECE3fun"
 "_ZZN4arma16arma_cerr_streamIcEERSoPSoE11cerr_stream"
